; Function Attrs: mustprogress nounwind uwtable
define internal fastcc void @_ZN5clang8comments12_GLOBAL__N_112cleanupBriefERNSt7__cxx1112basic_stringIcSt11char_traitsIcESaIcEEE(ptr noundef nonnull align 8 dereferenceable(32) %0) unnamed_addr #0 {
  %2 = tail call ptr @_ZNSt7__cxx1112basic_stringIcSt11char_traitsIcESaIcEE5beginEv(ptr noundef nonnull align 8 dereferenceable(32) %0) #4
  %3 = tail call ptr @_ZNSt7__cxx1112basic_stringIcSt11char_traitsIcESaIcEE5beginEv(ptr noundef nonnull align 8 dereferenceable(32) %0) #4
  %4 = tail call ptr @_ZNSt7__cxx1112basic_stringIcSt11char_traitsIcESaIcEE3endEv(ptr noundef nonnull align 8 dereferenceable(32) %0) #4
  %.not24 = icmp eq ptr %3, %4
  br i1 %.not24, label %._crit_edge, label %.lr.ph

.lr.ph:                                           ; preds = %1, %11
  %.027 = phi i1 [ %.not23, %11 ], [ true, %1 ]
  %.sroa.016.026 = phi ptr [ %.sroa.016.1, %11 ], [ %2, %1 ]
  %.sroa.013.025 = phi ptr [ %12, %11 ], [ %3, %1 ]
  %5 = load i8, ptr %.sroa.013.025, align 1
  %6 = zext i8 %5 to i64
  %7 = getelementptr inbounds [256 x i16], ptr @_ZN5clang8charinfo9InfoTableE, i64 0, i64 %6
  %8 = load i16, ptr %7, align 2
  %9 = and i16 %8, 7
  %.not23 = icmp ne i16 %9, 0
  %brmerge.not = and i1 %.not23, %.027
  br i1 %brmerge.not, label %11, label %.sink.split

.sink.split:                                      ; preds = %.lr.ph
  %.mux = select i1 %.not23, i8 32, i8 %5
  %10 = getelementptr inbounds i8, ptr %.sroa.016.026, i64 1
  store i8 %.mux, ptr %.sroa.016.026, align 1
  br label %11

11:                                               ; preds = %.lr.ph, %.sink.split
  %.sroa.016.1 = phi ptr [ %10, %.sink.split ], [ %.sroa.016.026, %.lr.ph ]
  %12 = getelementptr inbounds i8, ptr %.sroa.013.025, i64 1
  %.not = icmp eq ptr %12, %4
  br i1 %.not, label %._crit_edge, label %.lr.ph, !llvm.loop !7

._crit_edge:                                      ; preds = %11, %1
  %.sroa.016.0.lcssa = phi ptr [ %2, %1 ], [ %.sroa.016.1, %11 ]
  %13 = tail call ptr @_ZNSt7__cxx1112basic_stringIcSt11char_traitsIcESaIcEE5beginEv(ptr noundef nonnull align 8 dereferenceable(32) %0) #4
  %.not22 = icmp eq ptr %.sroa.016.0.lcssa, %13
  br i1 %.not22, label %.critedge, label %14

14:                                               ; preds = %._crit_edge
  %15 = getelementptr inbounds i8, ptr %.sroa.016.0.lcssa, i64 -1
  %16 = load i8, ptr %15, align 1
  %17 = icmp eq i8 %16, 32
  %spec.select = select i1 %17, ptr %15, ptr %.sroa.016.0.lcssa
  br label %.critedge

.critedge:                                        ; preds = %14, %._crit_edge
  %.sroa.016.2 = phi ptr [ %.sroa.016.0.lcssa, %._crit_edge ], [ %spec.select, %14 ]
  %18 = tail call ptr @_ZNSt7__cxx1112basic_stringIcSt11char_traitsIcESaIcEE5beginEv(ptr noundef nonnull align 8 dereferenceable(32) %0) #4
  %19 = ptrtoint ptr %.sroa.016.2 to i64
  %20 = ptrtoint ptr %18 to i64
  %21 = sub i64 %19, %20
  tail call void @_ZNSt7__cxx1112basic_stringIcSt11char_traitsIcESaIcEE6resizeEm(ptr noundef nonnull align 8 dereferenceable(32) %0, i64 noundef %21) #4
  ret void
}